; ModuleID = '33/1040.c'
source_filename = "33/1040.c"
target datalayout = "e-m:e-p270:32:32-p271:32:32-p272:64:64-i64:64-f80:128-n8:16:32:64-S128"
target triple = "x86_64-pc-linux-gnu"

@.str = private unnamed_addr constant [3 x i8] c"%d\00", align 1
@.str.1 = private unnamed_addr constant [3 x i8] c"%s\00", align 1
@.str.2 = private unnamed_addr constant [4 x i8] c"%s\0A\00", align 1

; Function Attrs: noinline nounwind uwtable
define dso_local i32 @main() #0 {
  %1 = alloca i32, align 4
  %2 = alloca i32, align 4
  %3 = alloca [1000 x [256 x i8]], align 16
  %4 = alloca [1000 x i32], align 16
  %5 = alloca i32, align 4
  %6 = alloca i32, align 4
  store i32 0, i32* %1, align 4
  %7 = call i32 (i8*, ...) @__isoc99_scanf(i8* getelementptr inbounds ([3 x i8], [3 x i8]* @.str, i64 0, i64 0), i32* %2)
  store i32 0, i32* %5, align 4
  br label %8

8:                                                ; preds = %18, %0
  %9 = load i32, i32* %5, align 4
  %10 = load i32, i32* %2, align 4
  %11 = icmp slt i32 %9, %10
  br i1 %11, label %12, label %21

12:                                               ; preds = %8
  %13 = load i32, i32* %5, align 4
  %14 = sext i32 %13 to i64
  %15 = getelementptr inbounds [1000 x [256 x i8]], [1000 x [256 x i8]]* %3, i64 0, i64 %14
  %16 = getelementptr inbounds [256 x i8], [256 x i8]* %15, i64 0, i64 0
  %17 = call i32 (i8*, ...) @__isoc99_scanf(i8* getelementptr inbounds ([3 x i8], [3 x i8]* @.str.1, i64 0, i64 0), i8* %16)
  br label %18

18:                                               ; preds = %12
  %19 = load i32, i32* %5, align 4
  %20 = add nsw i32 %19, 1
  store i32 %20, i32* %5, align 4
  br label %8

21:                                               ; preds = %8
  store i32 0, i32* %5, align 4
  br label %22

22:                                               ; preds = %36, %21
  %23 = load i32, i32* %5, align 4
  %24 = load i32, i32* %2, align 4
  %25 = icmp slt i32 %23, %24
  br i1 %25, label %26, label %39

26:                                               ; preds = %22
  %27 = load i32, i32* %5, align 4
  %28 = sext i32 %27 to i64
  %29 = getelementptr inbounds [1000 x [256 x i8]], [1000 x [256 x i8]]* %3, i64 0, i64 %28
  %30 = getelementptr inbounds [256 x i8], [256 x i8]* %29, i64 0, i64 0
  %31 = call i64 @strlen(i8* %30) #3
  %32 = trunc i64 %31 to i32
  %33 = load i32, i32* %5, align 4
  %34 = sext i32 %33 to i64
  %35 = getelementptr inbounds [1000 x i32], [1000 x i32]* %4, i64 0, i64 %34
  store i32 %32, i32* %35, align 4
  br label %36

36:                                               ; preds = %26
  %37 = load i32, i32* %5, align 4
  %38 = add nsw i32 %37, 1
  store i32 %38, i32* %5, align 4
  br label %22

39:                                               ; preds = %22
  store i32 0, i32* %5, align 4
  br label %40

40:                                               ; preds = %130, %39
  %41 = load i32, i32* %5, align 4
  %42 = load i32, i32* %2, align 4
  %43 = icmp slt i32 %41, %42
  br i1 %43, label %44, label %133

44:                                               ; preds = %40
  store i32 0, i32* %6, align 4
  br label %45

45:                                               ; preds = %126, %44
  %46 = load i32, i32* %6, align 4
  %47 = sext i32 %46 to i64
  %48 = load i32, i32* %5, align 4
  %49 = sext i32 %48 to i64
  %50 = getelementptr inbounds [1000 x [256 x i8]], [1000 x [256 x i8]]* %3, i64 0, i64 %49
  %51 = getelementptr inbounds [256 x i8], [256 x i8]* %50, i64 0, i64 0
  %52 = call i64 @strlen(i8* %51) #3
  %53 = icmp ult i64 %47, %52
  br i1 %53, label %54, label %129

54:                                               ; preds = %45
  %55 = load i32, i32* %5, align 4
  %56 = sext i32 %55 to i64
  %57 = getelementptr inbounds [1000 x [256 x i8]], [1000 x [256 x i8]]* %3, i64 0, i64 %56
  %58 = load i32, i32* %6, align 4
  %59 = sext i32 %58 to i64
  %60 = getelementptr inbounds [256 x i8], [256 x i8]* %57, i64 0, i64 %59
  %61 = load i8, i8* %60, align 1
  %62 = sext i8 %61 to i32
  %63 = icmp eq i32 %62, 65
  br i1 %63, label %64, label %71

64:                                               ; preds = %54
  %65 = load i32, i32* %5, align 4
  %66 = sext i32 %65 to i64
  %67 = getelementptr inbounds [1000 x [256 x i8]], [1000 x [256 x i8]]* %3, i64 0, i64 %66
  %68 = load i32, i32* %6, align 4
  %69 = sext i32 %68 to i64
  %70 = getelementptr inbounds [256 x i8], [256 x i8]* %67, i64 0, i64 %69
  store i8 84, i8* %70, align 1
  br label %125

71:                                               ; preds = %54
  %72 = load i32, i32* %5, align 4
  %73 = sext i32 %72 to i64
  %74 = getelementptr inbounds [1000 x [256 x i8]], [1000 x [256 x i8]]* %3, i64 0, i64 %73
  %75 = load i32, i32* %6, align 4
  %76 = sext i32 %75 to i64
  %77 = getelementptr inbounds [256 x i8], [256 x i8]* %74, i64 0, i64 %76
  %78 = load i8, i8* %77, align 1
  %79 = sext i8 %78 to i32
  %80 = icmp eq i32 %79, 84
  br i1 %80, label %81, label %88

81:                                               ; preds = %71
  %82 = load i32, i32* %5, align 4
  %83 = sext i32 %82 to i64
  %84 = getelementptr inbounds [1000 x [256 x i8]], [1000 x [256 x i8]]* %3, i64 0, i64 %83
  %85 = load i32, i32* %6, align 4
  %86 = sext i32 %85 to i64
  %87 = getelementptr inbounds [256 x i8], [256 x i8]* %84, i64 0, i64 %86
  store i8 65, i8* %87, align 1
  br label %124

88:                                               ; preds = %71
  %89 = load i32, i32* %5, align 4
  %90 = sext i32 %89 to i64
  %91 = getelementptr inbounds [1000 x [256 x i8]], [1000 x [256 x i8]]* %3, i64 0, i64 %90
  %92 = load i32, i32* %6, align 4
  %93 = sext i32 %92 to i64
  %94 = getelementptr inbounds [256 x i8], [256 x i8]* %91, i64 0, i64 %93
  %95 = load i8, i8* %94, align 1
  %96 = sext i8 %95 to i32
  %97 = icmp eq i32 %96, 71
  br i1 %97, label %98, label %105

98:                                               ; preds = %88
  %99 = load i32, i32* %5, align 4
  %100 = sext i32 %99 to i64
  %101 = getelementptr inbounds [1000 x [256 x i8]], [1000 x [256 x i8]]* %3, i64 0, i64 %100
  %102 = load i32, i32* %6, align 4
  %103 = sext i32 %102 to i64
  %104 = getelementptr inbounds [256 x i8], [256 x i8]* %101, i64 0, i64 %103
  store i8 67, i8* %104, align 1
  br label %123

105:                                              ; preds = %88
  %106 = load i32, i32* %5, align 4
  %107 = sext i32 %106 to i64
  %108 = getelementptr inbounds [1000 x [256 x i8]], [1000 x [256 x i8]]* %3, i64 0, i64 %107
  %109 = load i32, i32* %6, align 4
  %110 = sext i32 %109 to i64
  %111 = getelementptr inbounds [256 x i8], [256 x i8]* %108, i64 0, i64 %110
  %112 = load i8, i8* %111, align 1
  %113 = sext i8 %112 to i32
  %114 = icmp eq i32 %113, 67
  br i1 %114, label %115, label %122

115:                                              ; preds = %105
  %116 = load i32, i32* %5, align 4
  %117 = sext i32 %116 to i64
  %118 = getelementptr inbounds [1000 x [256 x i8]], [1000 x [256 x i8]]* %3, i64 0, i64 %117
  %119 = load i32, i32* %6, align 4
  %120 = sext i32 %119 to i64
  %121 = getelementptr inbounds [256 x i8], [256 x i8]* %118, i64 0, i64 %120
  store i8 71, i8* %121, align 1
  br label %122

122:                                              ; preds = %115, %105
  br label %123

123:                                              ; preds = %122, %98
  br label %124

124:                                              ; preds = %123, %81
  br label %125

125:                                              ; preds = %124, %64
  br label %126

126:                                              ; preds = %125
  %127 = load i32, i32* %6, align 4
  %128 = add nsw i32 %127, 1
  store i32 %128, i32* %6, align 4
  br label %45

129:                                              ; preds = %45
  br label %130

130:                                              ; preds = %129
  %131 = load i32, i32* %5, align 4
  %132 = add nsw i32 %131, 1
  store i32 %132, i32* %5, align 4
  br label %40

133:                                              ; preds = %40
  store i32 0, i32* %5, align 4
  br label %134

134:                                              ; preds = %144, %133
  %135 = load i32, i32* %5, align 4
  %136 = load i32, i32* %2, align 4
  %137 = icmp slt i32 %135, %136
  br i1 %137, label %138, label %147

138:                                              ; preds = %134
  %139 = load i32, i32* %5, align 4
  %140 = sext i32 %139 to i64
  %141 = getelementptr inbounds [1000 x [256 x i8]], [1000 x [256 x i8]]* %3, i64 0, i64 %140
  %142 = getelementptr inbounds [256 x i8], [256 x i8]* %141, i64 0, i64 0
  %143 = call i32 (i8*, ...) @printf(i8* getelementptr inbounds ([4 x i8], [4 x i8]* @.str.2, i64 0, i64 0), i8* %142)
  br label %144

144:                                              ; preds = %138
  %145 = load i32, i32* %5, align 4
  %146 = add nsw i32 %145, 1
  store i32 %146, i32* %5, align 4
  br label %134

147:                                              ; preds = %134
  ret i32 0
}

declare dso_local i32 @__isoc99_scanf(i8*, ...) #1

; Function Attrs: nounwind readonly
declare dso_local i64 @strlen(i8*) #2

declare dso_local i32 @printf(i8*, ...) #1


!llvm.module.flags = !{!0}
!llvm.ident = !{!1}

!0 = !{i32 1, !"wchar_size", i32 4}
!1 = !{!"clang version 10.0.0-4ubuntu1 "}
